target datalayout = "e-m:e-p270:32:32-p271:32:32-p272:64:64-i64:64-i128:128-f80:128-n8:16:32:64-S128"
target triple = "x86_64-pc-linux-gnu"

%struct.drmp3dec = type { [2 x [288 x float]], [960 x float], i32, i32, [4 x i8], [511 x i8] }
%struct.drmp3_allocation_callbacks = type { ptr, ptr, ptr, ptr }
%struct.drmp3 = type { %struct.drmp3dec, i32, i32, ptr, ptr, ptr, %struct.drmp3_allocation_callbacks, i32, i32, i32, i32, [9216 x i8], i64, i64, ptr, i32, i64, i64, i64, ptr, i8, %struct.anon.61 }
%struct.anon.61 = type { ptr, i64, i64 }

; Function Attrs: nounwind uwtable
define internal i32 @drmp3_decode_next_frame(ptr noundef %0) #0 {
  %2 = alloca ptr, align 8
  store ptr %0, ptr %2, align 8
  %3 = load ptr, ptr %2, align 8
  %4 = load ptr, ptr %2, align 8
  %5 = getelementptr inbounds nuw %struct.drmp3, ptr %4, i32 0, i32 11
  %6 = getelementptr inbounds [9216 x i8], ptr %5, i64 0, i64 0
  %7 = call i32 @drmp3_decode_next_frame_ex(ptr noundef %3, ptr noundef %6)
  ret i32 %7
}

; Function Attrs: nounwind uwtable
define internal void @drmp3_s16_to_f32(ptr noundef %0, ptr noundef %1, i64 noundef %2) #0 {
  %4 = alloca ptr, align 8
  %5 = alloca ptr, align 8
  %6 = alloca i64, align 8
  %7 = alloca i64, align 8
  %8 = alloca float, align 4
  store ptr %0, ptr %4, align 8
  store ptr %1, ptr %5, align 8
  store i64 %2, ptr %6, align 8
  call void @llvm.lifetime.start.p0(i64 8, ptr %7) #21
  store i64 0, ptr %7, align 8
  br label %9

9:                                                ; preds = %25, %3
  %10 = load i64, ptr %7, align 8
  %11 = load i64, ptr %6, align 8
  %12 = icmp ult i64 %10, %11
  br i1 %12, label %13, label %28

13:                                               ; preds = %9
  call void @llvm.lifetime.start.p0(i64 4, ptr %8) #21
  %14 = load ptr, ptr %5, align 8
  %15 = load i64, ptr %7, align 8
  %16 = getelementptr inbounds nuw i16, ptr %14, i64 %15
  %17 = load i16, ptr %16, align 2
  %18 = sitofp i16 %17 to float
  store float %18, ptr %8, align 4
  %19 = load float, ptr %8, align 4
  %20 = fmul float %19, 0x3F00000000000000
  store float %20, ptr %8, align 4
  %21 = load float, ptr %8, align 4
  %22 = load ptr, ptr %4, align 8
  %23 = load i64, ptr %7, align 8
  %24 = getelementptr inbounds nuw float, ptr %22, i64 %23
  store float %21, ptr %24, align 4
  call void @llvm.lifetime.end.p0(i64 4, ptr %8) #21
  br label %25

25:                                               ; preds = %13
  %26 = load i64, ptr %7, align 8
  %27 = add i64 %26, 1
  store i64 %27, ptr %7, align 8
  br label %9

28:                                               ; preds = %9
  call void @llvm.lifetime.end.p0(i64 8, ptr %7) #21
  ret void
}

; Function Attrs: nounwind uwtable
define internal i64 @drmp3_read_pcm_frames_raw(ptr noundef %0, i64 noundef %1, ptr noundef %2) #0 {
  %4 = alloca ptr, align 8
  %5 = alloca i64, align 8
  %6 = alloca ptr, align 8
  %7 = alloca i64, align 8
  %8 = alloca i32, align 4
  %9 = alloca ptr, align 8
  %10 = alloca ptr, align 8
  %11 = alloca i32, align 4
  store ptr %0, ptr %4, align 8
  store i64 %1, ptr %5, align 8
  store ptr %2, ptr %6, align 8
  call void @llvm.lifetime.start.p0(i64 8, ptr %7) #21
  store i64 0, ptr %7, align 8
  br label %12

12:                                               ; preds = %104, %3
  %13 = load i64, ptr %5, align 8
  %14 = icmp ugt i64 %13, 0
  br i1 %14, label %15, label %105

15:                                               ; preds = %12
  call void @llvm.lifetime.start.p0(i64 4, ptr %8) #21
  %16 = load ptr, ptr %4, align 8
  %17 = getelementptr inbounds nuw %struct.drmp3, ptr %16, i32 0, i32 10
  %18 = load i32, ptr %17, align 4
  %19 = zext i32 %18 to i64
  %20 = load i64, ptr %5, align 8
  %21 = icmp ugt i64 %19, %20
  br i1 %21, label %22, label %24

22:                                               ; preds = %15
  %23 = load i64, ptr %5, align 8
  br label %29

24:                                               ; preds = %15
  %25 = load ptr, ptr %4, align 8
  %26 = getelementptr inbounds nuw %struct.drmp3, ptr %25, i32 0, i32 10
  %27 = load i32, ptr %26, align 4
  %28 = zext i32 %27 to i64
  br label %29

29:                                               ; preds = %24, %22
  %30 = phi i64 [ %23, %22 ], [ %28, %24 ]
  %31 = trunc i64 %30 to i32
  store i32 %31, ptr %8, align 4
  %32 = load ptr, ptr %6, align 8
  %33 = icmp ne ptr %32, null
  br i1 %33, label %34, label %68

34:                                               ; preds = %29
  call void @llvm.lifetime.start.p0(i64 8, ptr %9) #21
  %35 = load ptr, ptr %6, align 8
  %36 = load i64, ptr %7, align 8
  %37 = mul i64 2, %36
  %38 = load ptr, ptr %4, align 8
  %39 = getelementptr inbounds nuw %struct.drmp3, ptr %38, i32 0, i32 1
  %40 = load i32, ptr %39, align 4
  %41 = zext i32 %40 to i64
  %42 = mul i64 %37, %41
  %43 = getelementptr inbounds nuw i8, ptr %35, i64 %42
  store ptr %43, ptr %9, align 8
  call void @llvm.lifetime.start.p0(i64 8, ptr %10) #21
  %44 = load ptr, ptr %4, align 8
  %45 = getelementptr inbounds nuw %struct.drmp3, ptr %44, i32 0, i32 11
  %46 = getelementptr inbounds [9216 x i8], ptr %45, i64 0, i64 0
  %47 = load ptr, ptr %4, align 8
  %48 = getelementptr inbounds nuw %struct.drmp3, ptr %47, i32 0, i32 9
  %49 = load i32, ptr %48, align 8
  %50 = zext i32 %49 to i64
  %51 = mul i64 2, %50
  %52 = load ptr, ptr %4, align 8
  %53 = getelementptr inbounds nuw %struct.drmp3, ptr %52, i32 0, i32 7
  %54 = load i32, ptr %53, align 8
  %55 = zext i32 %54 to i64
  %56 = mul i64 %51, %55
  %57 = getelementptr inbounds nuw i8, ptr %46, i64 %56
  store ptr %57, ptr %10, align 8
  %58 = load ptr, ptr %9, align 8
  %59 = load ptr, ptr %10, align 8
  %60 = load i32, ptr %8, align 4
  %61 = zext i32 %60 to i64
  %62 = mul i64 2, %61
  %63 = load ptr, ptr %4, align 8
  %64 = getelementptr inbounds nuw %struct.drmp3, ptr %63, i32 0, i32 1
  %65 = load i32, ptr %64, align 4
  %66 = zext i32 %65 to i64
  %67 = mul i64 %62, %66
  call void @llvm.memcpy.p0.p0.i64(ptr align 2 %58, ptr align 2 %59, i64 %67, i1 false)
  call void @llvm.lifetime.end.p0(i64 8, ptr %10) #21
  call void @llvm.lifetime.end.p0(i64 8, ptr %9) #21
  br label %68

68:                                               ; preds = %34, %29
  %69 = load i32, ptr %8, align 4
  %70 = zext i32 %69 to i64
  %71 = load ptr, ptr %4, align 8
  %72 = getelementptr inbounds nuw %struct.drmp3, ptr %71, i32 0, i32 12
  %73 = load i64, ptr %72, align 8
  %74 = add i64 %73, %70
  store i64 %74, ptr %72, align 8
  %75 = load i32, ptr %8, align 4
  %76 = load ptr, ptr %4, align 8
  %77 = getelementptr inbounds nuw %struct.drmp3, ptr %76, i32 0, i32 9
  %78 = load i32, ptr %77, align 8
  %79 = add i32 %78, %75
  store i32 %79, ptr %77, align 8
  %80 = load i32, ptr %8, align 4
  %81 = load ptr, ptr %4, align 8
  %82 = getelementptr inbounds nuw %struct.drmp3, ptr %81, i32 0, i32 10
  %83 = load i32, ptr %82, align 4
  %84 = sub i32 %83, %80
  store i32 %84, ptr %82, align 4
  %85 = load i32, ptr %8, align 4
  %86 = zext i32 %85 to i64
  %87 = load i64, ptr %7, align 8
  %88 = add i64 %87, %86
  store i64 %88, ptr %7, align 8
  %89 = load i32, ptr %8, align 4
  %90 = zext i32 %89 to i64
  %91 = load i64, ptr %5, align 8
  %92 = sub i64 %91, %90
  store i64 %92, ptr %5, align 8
  %93 = load i64, ptr %5, align 8
  %94 = icmp eq i64 %93, 0
  br i1 %94, label %95, label %96

95:                                               ; preds = %68
  store i32 3, ptr %11, align 4
  br label %102

96:                                               ; preds = %68
  %97 = load ptr, ptr %4, align 8
  %98 = call i32 @drmp3_decode_next_frame(ptr noundef %97)
  %99 = icmp eq i32 %98, 0
  br i1 %99, label %100, label %101

100:                                              ; preds = %96
  store i32 3, ptr %11, align 4
  br label %102

101:                                              ; preds = %96
  store i32 0, ptr %11, align 4
  br label %102

102:                                              ; preds = %101, %100, %95
  call void @llvm.lifetime.end.p0(i64 4, ptr %8) #21
  %103 = load i32, ptr %11, align 4
  switch i32 %103, label %107 [
    i32 0, label %104
    i32 3, label %105
  ]

104:                                              ; preds = %102
  br label %12

105:                                              ; preds = %102, %12
  %106 = load i64, ptr %7, align 8
  store i32 1, ptr %11, align 4
  call void @llvm.lifetime.end.p0(i64 8, ptr %7) #21
  ret i64 %106

107:                                              ; preds = %102
  unreachable
}

; Function Attrs: nounwind uwtable
define hidden i64 @drmp3_read_pcm_frames_f32(ptr noundef %0, i64 noundef %1, ptr noundef %2) #0 {
  %4 = alloca i64, align 8
  %5 = alloca ptr, align 8
  %6 = alloca i64, align 8
  %7 = alloca ptr, align 8
  %8 = alloca [8192 x i16], align 16
  %9 = alloca i64, align 8
  %10 = alloca i64, align 8
  %11 = alloca i64, align 8
  %12 = alloca i64, align 8
  %13 = alloca i32, align 4
  store ptr %0, ptr %5, align 8
  store i64 %1, ptr %6, align 8
  store ptr %2, ptr %7, align 8
  %14 = load ptr, ptr %5, align 8
  %15 = icmp eq ptr %14, null
  br i1 %15, label %21, label %16

16:                                               ; preds = %3
  %17 = load ptr, ptr %5, align 8
  %18 = getelementptr inbounds nuw %struct.drmp3, ptr %17, i32 0, i32 3
  %19 = load ptr, ptr %18, align 8
  %20 = icmp eq ptr %19, null
  br i1 %20, label %21, label %22

21:                                               ; preds = %16, %3
  store i64 0, ptr %4, align 8
  br label %74

22:                                               ; preds = %16
  call void @llvm.lifetime.start.p0(i64 16384, ptr %8) #21
  call void @llvm.lifetime.start.p0(i64 8, ptr %9) #21
  store i64 0, ptr %9, align 8
  br label %23

23:                                               ; preds = %71, %22
  %24 = load i64, ptr %9, align 8
  %25 = load i64, ptr %6, align 8
  %26 = icmp ult i64 %24, %25
  br i1 %26, label %27, label %72

27:                                               ; preds = %23
  call void @llvm.lifetime.start.p0(i64 8, ptr %10) #21
  call void @llvm.lifetime.start.p0(i64 8, ptr %11) #21
  %28 = load i64, ptr %6, align 8
  %29 = load i64, ptr %9, align 8
  %30 = sub i64 %28, %29
  store i64 %30, ptr %11, align 8
  call void @llvm.lifetime.start.p0(i64 8, ptr %12) #21
  %31 = load ptr, ptr %5, align 8
  %32 = getelementptr inbounds nuw %struct.drmp3, ptr %31, i32 0, i32 1
  %33 = load i32, ptr %32, align 4
  %34 = zext i32 %33 to i64
  %35 = udiv i64 8192, %34
  store i64 %35, ptr %12, align 8
  %36 = load i64, ptr %12, align 8
  %37 = load i64, ptr %11, align 8
  %38 = icmp ugt i64 %36, %37
  br i1 %38, label %39, label %41

39:                                               ; preds = %27
  %40 = load i64, ptr %11, align 8
  store i64 %40, ptr %12, align 8
  br label %41

41:                                               ; preds = %39, %27
  %42 = load ptr, ptr %5, align 8
  %43 = load i64, ptr %12, align 8
  %44 = getelementptr inbounds [8192 x i16], ptr %8, i64 0, i64 0
  %45 = call i64 @drmp3_read_pcm_frames_raw(ptr noundef %42, i64 noundef %43, ptr noundef %44)
  store i64 %45, ptr %10, align 8
  %46 = load i64, ptr %10, align 8
  %47 = icmp eq i64 %46, 0
  br i1 %47, label %48, label %49

48:                                               ; preds = %41
  store i32 3, ptr %13, align 4
  br label %69

49:                                               ; preds = %41
  %50 = load ptr, ptr %7, align 8
  %51 = load i64, ptr %9, align 8
  %52 = mul i64 4, %51
  %53 = load ptr, ptr %5, align 8
  %54 = getelementptr inbounds nuw %struct.drmp3, ptr %53, i32 0, i32 1
  %55 = load i32, ptr %54, align 4
  %56 = zext i32 %55 to i64
  %57 = mul i64 %52, %56
  %58 = getelementptr inbounds nuw i8, ptr %50, i64 %57
  %59 = getelementptr inbounds [8192 x i16], ptr %8, i64 0, i64 0
  %60 = load i64, ptr %10, align 8
  %61 = load ptr, ptr %5, align 8
  %62 = getelementptr inbounds nuw %struct.drmp3, ptr %61, i32 0, i32 1
  %63 = load i32, ptr %62, align 4
  %64 = zext i32 %63 to i64
  %65 = mul i64 %60, %64
  call void @drmp3_s16_to_f32(ptr noundef %58, ptr noundef %59, i64 noundef %65)
  %66 = load i64, ptr %10, align 8
  %67 = load i64, ptr %9, align 8
  %68 = add i64 %67, %66
  store i64 %68, ptr %9, align 8
  store i32 0, ptr %13, align 4
  br label %69

69:                                               ; preds = %49, %48
  call void @llvm.lifetime.end.p0(i64 8, ptr %12) #21
  call void @llvm.lifetime.end.p0(i64 8, ptr %11) #21
  call void @llvm.lifetime.end.p0(i64 8, ptr %10) #21
  %70 = load i32, ptr %13, align 4
  switch i32 %70, label %76 [
    i32 0, label %71
    i32 3, label %72
  ]

71:                                               ; preds = %69
  br label %23

72:                                               ; preds = %69, %23
  %73 = load i64, ptr %9, align 8
  store i64 %73, ptr %4, align 8
  store i32 1, ptr %13, align 4
  call void @llvm.lifetime.end.p0(i64 8, ptr %9) #21
  call void @llvm.lifetime.end.p0(i64 16384, ptr %8) #21
  br label %74

74:                                               ; preds = %72, %21
  %75 = load i64, ptr %4, align 8
  ret i64 %75

76:                                               ; preds = %69
  unreachable
}