; Function Attrs: nounwind uwtable
define hidden i64 @drmp3_read_pcm_frames_f32(ptr noundef %0, i64 noundef %1, ptr noundef writeonly captures(none) %2) local_unnamed_addr #7 {
  %4 = alloca [8192 x i16], align 16
  %5 = icmp eq ptr %0, null
  br i1 %5, label %67, label %6

6:                                                ; preds = %3
  %7 = getelementptr inbounds nuw i8, ptr %0, i64 6680
  %8 = load ptr, ptr %7, align 8
  %9 = icmp eq ptr %8, null
  br i1 %9, label %67, label %10

10:                                               ; preds = %6
  call void @llvm.lifetime.start.p0(i64 16384, ptr nonnull %4) #72
  %.not = icmp eq i64 %1, 0
  br i1 %.not, label %.thread, label %.lr.ph

.lr.ph:                                           ; preds = %10
  %11 = getelementptr inbounds nuw i8, ptr %0, i64 6668
  %12 = getelementptr inbounds nuw i8, ptr %0, i64 6752
  %13 = getelementptr inbounds nuw i8, ptr %0, i64 6748
  %14 = getelementptr inbounds nuw i8, ptr %0, i64 6744
  %15 = getelementptr inbounds nuw i8, ptr %0, i64 6736
  %16 = getelementptr inbounds nuw i8, ptr %0, i64 15968
  br label %17

17:                                               ; preds = %.lr.ph, %.loopexit
  %.02434 = phi i64 [ 0, %.lr.ph ], [ %65, %.loopexit ]
  %18 = sub nuw i64 %1, %.02434
  %19 = load i32, ptr %11, align 4
  %20 = udiv i32 8192, %19
  %21 = zext nneg i32 %20 to i64
  %spec.select = tail call i64 @llvm.umin.i64(i64 %18, i64 %21)
  br label %.split.i

.split.i:                                         ; preds = %17, %48
  %.030.i = phi i64 [ %45, %48 ], [ 0, %17 ]
  %.029.i = phi i64 [ %46, %48 ], [ %spec.select, %17 ]
  %.not.i = icmp eq i64 %.029.i, 0
  br i1 %.not.i, label %drmp3_read_pcm_frames_raw.exit, label %22

22:                                               ; preds = %.split.i
  %23 = load i32, ptr %13, align 4
  %24 = zext i32 %23 to i64
  %25 = tail call i64 @llvm.umin.i64(i64 %.029.i, i64 %24)
  %26 = trunc nuw i64 %25 to i32
  %27 = shl i64 %.030.i, 1
  %28 = load i32, ptr %11, align 4
  %29 = zext i32 %28 to i64
  %30 = mul i64 %27, %29
  %31 = getelementptr inbounds nuw i8, ptr %4, i64 %30
  %32 = load i32, ptr %14, align 8
  %33 = zext i32 %32 to i64
  %34 = shl nuw nsw i64 %33, 1
  %35 = load i32, ptr %15, align 8
  %36 = zext i32 %35 to i64
  %37 = mul i64 %34, %36
  %38 = getelementptr inbounds nuw i8, ptr %12, i64 %37
  %39 = shl nuw nsw i64 %25, 1
  %40 = mul i64 %39, %29
  call void @llvm.memcpy.p0.p0.i64(ptr nonnull align 2 %31, ptr nonnull align 2 %38, i64 %40, i1 false)
  %41 = load i64, ptr %16, align 8
  %42 = add i64 %41, %25
  store i64 %42, ptr %16, align 8
  %43 = add i32 %32, %26
  store i32 %43, ptr %14, align 8
  %44 = sub i32 %23, %26
  store i32 %44, ptr %13, align 4
  %45 = add i64 %25, %.030.i
  %46 = sub i64 %.029.i, %25
  %47 = icmp eq i64 %46, 0
  br i1 %47, label %drmp3_read_pcm_frames_raw.exit, label %48

48:                                               ; preds = %22
  %49 = tail call fastcc range(i32 0, 1153) i32 @drmp3_decode_next_frame_ex(ptr noundef nonnull %0, ptr noundef nonnull %12)
  %50 = icmp eq i32 %49, 0
  br i1 %50, label %drmp3_read_pcm_frames_raw.exit, label %.split.i

drmp3_read_pcm_frames_raw.exit:                   ; preds = %.split.i, %22, %48
  %.us-phi.i = phi i64 [ %.030.i, %.split.i ], [ %45, %22 ], [ %45, %48 ]
  %51 = icmp eq i64 %.us-phi.i, 0
  br i1 %51, label %.thread, label %52

52:                                               ; preds = %drmp3_read_pcm_frames_raw.exit
  %53 = shl i64 %.02434, 2
  %54 = load i32, ptr %11, align 4
  %55 = zext i32 %54 to i64
  %56 = mul i64 %53, %55
  %57 = getelementptr inbounds nuw i8, ptr %2, i64 %56
  %58 = mul i64 %.us-phi.i, %55
  %.not.i30 = icmp eq i64 %58, 0
  br i1 %.not.i30, label %.loopexit, label %.lr.ph.i

.lr.ph.i:                                         ; preds = %52, %.lr.ph.i
  %.08.i = phi i64 [ %64, %.lr.ph.i ], [ 0, %52 ]
  %59 = getelementptr inbounds nuw i16, ptr %4, i64 %.08.i
  %60 = load i16, ptr %59, align 2
  %61 = sitofp i16 %60 to float
  %62 = fmul float %61, 0x3F00000000000000
  %63 = getelementptr inbounds nuw float, ptr %57, i64 %.08.i
  store float %62, ptr %63, align 4
  %64 = add nuw i64 %.08.i, 1
  %exitcond.not.i = icmp eq i64 %64, %58
  br i1 %exitcond.not.i, label %.loopexit, label %.lr.ph.i

.loopexit:                                        ; preds = %.lr.ph.i, %52
  %65 = add i64 %.us-phi.i, %.02434
  %66 = icmp ult i64 %65, %1
  br i1 %66, label %17, label %.thread

.thread:                                          ; preds = %.loopexit, %drmp3_read_pcm_frames_raw.exit, %10
  %.024.lcssa = phi i64 [ 0, %10 ], [ %.02434, %drmp3_read_pcm_frames_raw.exit ], [ %65, %.loopexit ]
  call void @llvm.lifetime.end.p0(i64 16384, ptr nonnull %4) #72
  br label %67

67:                                               ; preds = %3, %6, %.thread
  %.023 = phi i64 [ %.024.lcssa, %.thread ], [ 0, %6 ], [ 0, %3 ]
  ret i64 %.023
}